; Function Attrs: mustprogress nounwind willreturn uwtable
define internal void @_ZN4llvh2cl3optIN12_GLOBAL__N_118HelpPrinterWrapperELb1ENS0_6parserIbEEED2Ev(ptr nocapture noundef nonnull align 8 dereferenceable(176) %this) unnamed_addr #8 align 2 {
entry:
  store ptr getelementptr inbounds ({ [13 x ptr] }, ptr @_ZTVN4llvh2cl6OptionE, i64 0, i32 0, i64 2), ptr %this, align 8
  %Subs.i = getelementptr inbounds i8, ptr %this, i64 80
  %CurArray.i.i.i.i.i = getelementptr inbounds i8, ptr %this, i64 88
  %0 = load ptr, ptr %CurArray.i.i.i.i.i, align 8
  %1 = load ptr, ptr %Subs.i, align 8
  %cmp.i.i.i.i.i = icmp eq ptr %0, %1
  br i1 %cmp.i.i.i.i.i, label %_ZN4llvh2cl6OptionD2Ev.exit, label %if.then.i.i.i.i

if.then.i.i.i.i:                                  ; preds = %entry
  tail call void @free(ptr noundef %0) #27
  br label %_ZN4llvh2cl6OptionD2Ev.exit

_ZN4llvh2cl6OptionD2Ev.exit:                      ; preds = %entry, %if.then.i.i.i.i
  ret void
}